target datalayout = "e-m:e-p270:32:32-p271:32:32-p272:64:64-i64:64-i128:128-f80:128-n8:16:32:64-S128"
target triple = "x86_64-unknown-linux-gnu"

%class.btTriangleMeshShape = type { %class.btConcaveShape.base, %class.btVector3, %class.btVector3, ptr }
%class.btConcaveShape.base = type <{ %class.btCollisionShape, float }>
%class.btCollisionShape = type { ptr, i32, ptr, i32, i32 }
%class.btVector3 = type { [4 x float] }
%class.btConcaveShape = type <{ %class.btCollisionShape, float, [4 x i8] }>

; Function Attrs: mustprogress nounwind uwtable
define linkonce_odr dso_local noundef ptr @_ZN9btVector3cvPfEv(ptr noundef nonnull align 4 dereferenceable(16) %this) #1 comdat align 2 {
entry:
  %this.addr = alloca ptr, align 8
  store ptr %this, ptr %this.addr, align 8
  %this1 = load ptr, ptr %this.addr, align 8
  %m_floats = getelementptr inbounds %class.btVector3, ptr %this1, i32 0, i32 0
  %arrayidx = getelementptr inbounds [4 x float], ptr %m_floats, i64 0, i64 0
  ret ptr %arrayidx
}

; Function Attrs: mustprogress nounwind uwtable
define linkonce_odr dso_local void @_ZN9btVector3C2ERKfS1_S1_(ptr noundef nonnull align 4 dereferenceable(16) %this, ptr noundef nonnull align 4 dereferenceable(4) %_x, ptr noundef nonnull align 4 dereferenceable(4) %_y, ptr noundef nonnull align 4 dereferenceable(4) %_z) unnamed_addr #1 comdat align 2 {
entry:
  %this.addr = alloca ptr, align 8
  %_x.addr = alloca ptr, align 8
  %_y.addr = alloca ptr, align 8
  %_z.addr = alloca ptr, align 8
  store ptr %this, ptr %this.addr, align 8
  store ptr %_x, ptr %_x.addr, align 8
  store ptr %_y, ptr %_y.addr, align 8
  store ptr %_z, ptr %_z.addr, align 8
  %this1 = load ptr, ptr %this.addr, align 8
  %0 = load ptr, ptr %_x.addr, align 8
  %1 = load float, ptr %0, align 4
  %m_floats = getelementptr inbounds %class.btVector3, ptr %this1, i32 0, i32 0
  %arrayidx = getelementptr inbounds [4 x float], ptr %m_floats, i64 0, i64 0
  store float %1, ptr %arrayidx, align 4
  %2 = load ptr, ptr %_y.addr, align 8
  %3 = load float, ptr %2, align 4
  %m_floats2 = getelementptr inbounds %class.btVector3, ptr %this1, i32 0, i32 0
  %arrayidx3 = getelementptr inbounds [4 x float], ptr %m_floats2, i64 0, i64 1
  store float %3, ptr %arrayidx3, align 4
  %4 = load ptr, ptr %_z.addr, align 8
  %5 = load float, ptr %4, align 4
  %m_floats4 = getelementptr inbounds %class.btVector3, ptr %this1, i32 0, i32 0
  %arrayidx5 = getelementptr inbounds [4 x float], ptr %m_floats4, i64 0, i64 2
  store float %5, ptr %arrayidx5, align 4
  %m_floats6 = getelementptr inbounds %class.btVector3, ptr %this1, i32 0, i32 0
  %arrayidx7 = getelementptr inbounds [4 x float], ptr %m_floats6, i64 0, i64 3
  store float 0.000000e+00, ptr %arrayidx7, align 4
  ret void
}

; Function Attrs: mustprogress uwtable
define dso_local void @_ZN19btTriangleMeshShape15recalcLocalAabbEv(ptr noundef nonnull align 8 dereferenceable(80) %this) #4 align 2 {
entry:
  %this.addr = alloca ptr, align 8
  %i = alloca i32, align 4
  %vec = alloca %class.btVector3, align 4
  %ref.tmp = alloca float, align 4
  %ref.tmp2 = alloca float, align 4
  %ref.tmp3 = alloca float, align 4
  %tmp = alloca %class.btVector3, align 4
  %ref.tmp14 = alloca %class.btVector3, align 4
  store ptr %this, ptr %this.addr, align 8
  %this1 = load ptr, ptr %this.addr, align 8
  store i32 0, ptr %i, align 4
  br label %for.cond

for.cond:                                         ; preds = %for.inc, %entry
  %0 = load i32, ptr %i, align 4
  %cmp = icmp slt i32 %0, 3
  br i1 %cmp, label %for.body, label %for.end

for.body:                                         ; preds = %for.cond
  store float 0.000000e+00, ptr %ref.tmp, align 4
  store float 0.000000e+00, ptr %ref.tmp2, align 4
  store float 0.000000e+00, ptr %ref.tmp3, align 4
  call void @_ZN9btVector3C2ERKfS1_S1_(ptr noundef nonnull align 4 dereferenceable(16) %vec, ptr noundef nonnull align 4 dereferenceable(4) %ref.tmp, ptr noundef nonnull align 4 dereferenceable(4) %ref.tmp2, ptr noundef nonnull align 4 dereferenceable(4) %ref.tmp3)
  %call = call noundef ptr @_ZN9btVector3cvPfEv(ptr noundef nonnull align 4 dereferenceable(16) %vec)
  %1 = load i32, ptr %i, align 4
  %idxprom = sext i32 %1 to i64
  %arrayidx = getelementptr inbounds float, ptr %call, i64 %idxprom
  store float 1.000000e+00, ptr %arrayidx, align 4
  %vtable = load ptr, ptr %this1, align 8
  %vfn = getelementptr inbounds ptr, ptr %vtable, i64 17
  %2 = load ptr, ptr %vfn, align 8
  %call4 = call { <2 x float>, <2 x float> } %2(ptr noundef nonnull align 8 dereferenceable(80) %this1, ptr noundef nonnull align 4 dereferenceable(16) %vec)
  %coerce.dive = getelementptr inbounds %class.btVector3, ptr %tmp, i32 0, i32 0
  %3 = getelementptr inbounds { <2 x float>, <2 x float> }, ptr %coerce.dive, i32 0, i32 0
  %4 = extractvalue { <2 x float>, <2 x float> } %call4, 0
  store <2 x float> %4, ptr %3, align 4
  %5 = getelementptr inbounds { <2 x float>, <2 x float> }, ptr %coerce.dive, i32 0, i32 1
  %6 = extractvalue { <2 x float>, <2 x float> } %call4, 1
  store <2 x float> %6, ptr %5, align 4
  %call5 = call noundef ptr @_ZN9btVector3cvPfEv(ptr noundef nonnull align 4 dereferenceable(16) %tmp)
  %7 = load i32, ptr %i, align 4
  %idxprom6 = sext i32 %7 to i64
  %arrayidx7 = getelementptr inbounds float, ptr %call5, i64 %idxprom6
  %8 = load float, ptr %arrayidx7, align 4
  %m_collisionMargin = getelementptr inbounds %class.btConcaveShape, ptr %this1, i32 0, i32 1
  %9 = load float, ptr %m_collisionMargin, align 8
  %add = fadd float %8, %9
  %m_localAabbMax = getelementptr inbounds %class.btTriangleMeshShape, ptr %this1, i32 0, i32 2
  %call8 = call noundef ptr @_ZN9btVector3cvPfEv(ptr noundef nonnull align 4 dereferenceable(16) %m_localAabbMax)
  %10 = load i32, ptr %i, align 4
  %idxprom9 = sext i32 %10 to i64
  %arrayidx10 = getelementptr inbounds float, ptr %call8, i64 %idxprom9
  store float %add, ptr %arrayidx10, align 4
  %call11 = call noundef ptr @_ZN9btVector3cvPfEv(ptr noundef nonnull align 4 dereferenceable(16) %vec)
  %11 = load i32, ptr %i, align 4
  %idxprom12 = sext i32 %11 to i64
  %arrayidx13 = getelementptr inbounds float, ptr %call11, i64 %idxprom12
  store float -1.000000e+00, ptr %arrayidx13, align 4
  %vtable15 = load ptr, ptr %this1, align 8
  %vfn16 = getelementptr inbounds ptr, ptr %vtable15, i64 17
  %12 = load ptr, ptr %vfn16, align 8
  %call17 = call { <2 x float>, <2 x float> } %12(ptr noundef nonnull align 8 dereferenceable(80) %this1, ptr noundef nonnull align 4 dereferenceable(16) %vec)
  %coerce.dive18 = getelementptr inbounds %class.btVector3, ptr %ref.tmp14, i32 0, i32 0
  %13 = getelementptr inbounds { <2 x float>, <2 x float> }, ptr %coerce.dive18, i32 0, i32 0
  %14 = extractvalue { <2 x float>, <2 x float> } %call17, 0
  store <2 x float> %14, ptr %13, align 4
  %15 = getelementptr inbounds { <2 x float>, <2 x float> }, ptr %coerce.dive18, i32 0, i32 1
  %16 = extractvalue { <2 x float>, <2 x float> } %call17, 1
  store <2 x float> %16, ptr %15, align 4
  call void @llvm.memcpy.p0.p0.i64(ptr align 4 %tmp, ptr align 4 %ref.tmp14, i64 16, i1 false)
  %call19 = call noundef ptr @_ZN9btVector3cvPfEv(ptr noundef nonnull align 4 dereferenceable(16) %tmp)
  %17 = load i32, ptr %i, align 4
  %idxprom20 = sext i32 %17 to i64
  %arrayidx21 = getelementptr inbounds float, ptr %call19, i64 %idxprom20
  %18 = load float, ptr %arrayidx21, align 4
  %m_collisionMargin22 = getelementptr inbounds %class.btConcaveShape, ptr %this1, i32 0, i32 1
  %19 = load float, ptr %m_collisionMargin22, align 8
  %sub = fsub float %18, %19
  %m_localAabbMin = getelementptr inbounds %class.btTriangleMeshShape, ptr %this1, i32 0, i32 1
  %call23 = call noundef ptr @_ZN9btVector3cvPfEv(ptr noundef nonnull align 4 dereferenceable(16) %m_localAabbMin)
  %20 = load i32, ptr %i, align 4
  %idxprom24 = sext i32 %20 to i64
  %arrayidx25 = getelementptr inbounds float, ptr %call23, i64 %idxprom24
  store float %sub, ptr %arrayidx25, align 4
  br label %for.inc

for.inc:                                          ; preds = %for.body
  %21 = load i32, ptr %i, align 4
  %inc = add nsw i32 %21, 1
  store i32 %inc, ptr %i, align 4
  br label %for.cond, !llvm.loop !5

for.end:                                          ; preds = %for.cond
  ret void
}