; Function Attrs: mustprogress uwtable
define dso_local void @_ZN19btTriangleMeshShape15recalcLocalAabbEv(ptr noundef nonnull align 8 dereferenceable(80) %this) local_unnamed_addr #0 align 2 {
entry:
  %vec = alloca %class.btVector3, align 4
  %tmp = alloca %class.btVector3, align 8
  %0 = getelementptr inbounds i8, ptr %tmp, i64 8
  %m_collisionMargin = getelementptr inbounds i8, ptr %this, i64 32
  %m_localAabbMax = getelementptr inbounds i8, ptr %this, i64 52
  %m_localAabbMin = getelementptr inbounds i8, ptr %this, i64 36
  br label %for.body

for.body:                                         ; preds = %entry, %for.body
  %indvars.iv = phi i64 [ 0, %entry ], [ %indvars.iv.next, %for.body ]
  %arrayidx = getelementptr inbounds float, ptr %vec, i64 %indvars.iv
  call void @llvm.memset.p0.i64(ptr noundef nonnull align 4 dereferenceable(16) %vec, i8 0, i64 16, i1 false)
  store float 1.000000e+00, ptr %arrayidx, align 4
  %vtable = load ptr, ptr %this, align 8
  %vfn = getelementptr inbounds i8, ptr %vtable, i64 136
  %1 = load ptr, ptr %vfn, align 8
  %call4 = call { <2 x float>, <2 x float> } %1(ptr noundef nonnull align 8 dereferenceable(80) %this, ptr noundef nonnull align 4 dereferenceable(16) %vec)
  %2 = extractvalue { <2 x float>, <2 x float> } %call4, 0
  store <2 x float> %2, ptr %tmp, align 8
  %3 = extractvalue { <2 x float>, <2 x float> } %call4, 1
  store <2 x float> %3, ptr %0, align 8
  %arrayidx7 = getelementptr inbounds float, ptr %tmp, i64 %indvars.iv
  %4 = load float, ptr %arrayidx7, align 4
  %5 = load float, ptr %m_collisionMargin, align 8
  %add = fadd float %4, %5
  %arrayidx10 = getelementptr inbounds float, ptr %m_localAabbMax, i64 %indvars.iv
  store float %add, ptr %arrayidx10, align 4
  store float -1.000000e+00, ptr %arrayidx, align 4
  %vtable15 = load ptr, ptr %this, align 8
  %vfn16 = getelementptr inbounds i8, ptr %vtable15, i64 136
  %6 = load ptr, ptr %vfn16, align 8
  %call17 = call { <2 x float>, <2 x float> } %6(ptr noundef nonnull align 8 dereferenceable(80) %this, ptr noundef nonnull align 4 dereferenceable(16) %vec)
  %7 = extractvalue { <2 x float>, <2 x float> } %call17, 0
  %8 = extractvalue { <2 x float>, <2 x float> } %call17, 1
  store <2 x float> %7, ptr %tmp, align 8
  store <2 x float> %8, ptr %0, align 8
  %9 = load float, ptr %arrayidx7, align 4
  %10 = load float, ptr %m_collisionMargin, align 8
  %sub = fsub float %9, %10
  %arrayidx25 = getelementptr inbounds float, ptr %m_localAabbMin, i64 %indvars.iv
  store float %sub, ptr %arrayidx25, align 4
  %indvars.iv.next = add nuw nsw i64 %indvars.iv, 1
  %exitcond.not = icmp eq i64 %indvars.iv.next, 3
  br i1 %exitcond.not, label %for.end, label %for.body, !llvm.loop !5

for.end:                                          ; preds = %for.body
  ret void
}